TI ARM Assembler PC v16.9.1 Fri Jul 14 17:49:16 2017

Tools Copyright (c) 1996-2015 Texas Instruments Incorporated
C:\Users\admin\AppData\Local\Temp\1329210                            PAGE    1

       1                    ;******************************************************************************
       2                    ;* TI ARM C/C++ Codegen                                        PC v16.9.1.LTS *
       3                    ;* Date/Time created: Fri Jul 14 17:49:16 2017                                *
       4                    ;******************************************************************************
       5                            .compiler_opts --abi=eabi --arm_vmrs_si_workaround=off --code_state=16 --diag_wrap=off --embed
       6 00000000                   .thumb
       7                    
       8                    $C$DW$CU        .dwtag  DW_TAG_compile_unit
       9                            .dwattr $C$DW$CU, DW_AT_name("../tm4c123gh6pm_startup_ccs.c")
      10                            .dwattr $C$DW$CU, DW_AT_producer("TI TI ARM C/C++ Codegen PC v16.9.1.LTS Copyright (c) 1996-20
      11                            .dwattr $C$DW$CU, DW_AT_TI_version(0x01)
      12                            .dwattr $C$DW$CU, DW_AT_comp_dir("C:\Users\admin\Documents\LCDst7735\test1\ST7735\Debug")
      13                    $C$DW$1 .dwtag  DW_TAG_variable
      14                            .dwattr $C$DW$1, DW_AT_name("__STACK_TOP")
      15                            .dwattr $C$DW$1, DW_AT_TI_symbol_name("__STACK_TOP")
      16                            .dwattr $C$DW$1, DW_AT_type(*$C$DW$T$37)
      17                            .dwattr $C$DW$1, DW_AT_declaration
      18                            .dwattr $C$DW$1, DW_AT_external
      19                            .dwattr $C$DW$1, DW_AT_decl_file("../tm4c123gh6pm_startup_ccs.c")
      20                            .dwattr $C$DW$1, DW_AT_decl_line(0x32)
      21                            .dwattr $C$DW$1, DW_AT_decl_column(0x11)
      22                    
      23                            .global g_pfnVectors
      24 00000000                   .sect   ".intvecs"
      25                            .align  4
      26                            .elfsym g_pfnVectors,SYM_SIZE(620)
      27 00000000           g_pfnVectors:
      28 00000000 00000000!         .bits   __STACK_TOP,32          ; g_pfnVectors[0] @ 0
      29 00000004 00000000!         .bits   ResetISR,32             ; g_pfnVectors[1] @ 32
      30 00000008 00000000!         .bits   NmiSR,32                ; g_pfnVectors[2] @ 64
      31 0000000c 00000000!         .bits   FaultISR,32             ; g_pfnVectors[3] @ 96
      32 00000010 00000000!         .bits   IntDefaultHandler,32            ; g_pfnVectors[4] @ 128
      33 00000014 00000000!         .bits   IntDefaultHandler,32            ; g_pfnVectors[5] @ 160
      34 00000018 00000000!         .bits   IntDefaultHandler,32            ; g_pfnVectors[6] @ 192
      35 0000001c 00000000          .bits   0,32                    ; g_pfnVectors[7] @ 224
      36 00000020 00000000          .bits   0,32                    ; g_pfnVectors[8] @ 256
      37 00000024 00000000          .bits   0,32                    ; g_pfnVectors[9] @ 288
      38 00000028 00000000          .bits   0,32                    ; g_pfnVectors[10] @ 320
      39 0000002c 00000000!         .bits   IntDefaultHandler,32            ; g_pfnVectors[11] @ 352
      40 00000030 00000000!         .bits   IntDefaultHandler,32            ; g_pfnVectors[12] @ 384
      41 00000034 00000000          .bits   0,32                    ; g_pfnVectors[13] @ 416
      42 00000038 00000000!         .bits   IntDefaultHandler,32            ; g_pfnVectors[14] @ 448
      43 0000003c 00000000!         .bits   IntDefaultHandler,32            ; g_pfnVectors[15] @ 480
      44 00000040 00000000!         .bits   IntDefaultHandler,32            ; g_pfnVectors[16] @ 512
      45 00000044 00000000!         .bits   IntDefaultHandler,32            ; g_pfnVectors[17] @ 544
      46 00000048 00000000!         .bits   IntDefaultHandler,32            ; g_pfnVectors[18] @ 576
      47 0000004c 00000000!         .bits   IntDefaultHandler,32            ; g_pfnVectors[19] @ 608
      48 00000050 00000000!         .bits   IntDefaultHandler,32            ; g_pfnVectors[20] @ 640
      49 00000054 00000000!         .bits   IntDefaultHandler,32            ; g_pfnVectors[21] @ 672
      50 00000058 00000000!         .bits   IntDefaultHandler,32            ; g_pfnVectors[22] @ 704
      51 0000005c 00000000!         .bits   IntDefaultHandler,32            ; g_pfnVectors[23] @ 736
      52 00000060 00000000!         .bits   IntDefaultHandler,32            ; g_pfnVectors[24] @ 768
      53 00000064 00000000!         .bits   IntDefaultHandler,32            ; g_pfnVectors[25] @ 800
      54 00000068 00000000!         .bits   IntDefaultHandler,32            ; g_pfnVectors[26] @ 832
      55 0000006c 00000000!         .bits   IntDefaultHandler,32            ; g_pfnVectors[27] @ 864
TI ARM Assembler PC v16.9.1 Fri Jul 14 17:49:16 2017

Tools Copyright (c) 1996-2015 Texas Instruments Incorporated
C:\Users\admin\AppData\Local\Temp\1329210                            PAGE    2

      56 00000070 00000000!         .bits   IntDefaultHandler,32            ; g_pfnVectors[28] @ 896
      57 00000074 00000000!         .bits   IntDefaultHandler,32            ; g_pfnVectors[29] @ 928
      58 00000078 00000000!         .bits   IntDefaultHandler,32            ; g_pfnVectors[30] @ 960
      59 0000007c 00000000!         .bits   IntDefaultHandler,32            ; g_pfnVectors[31] @ 992
      60 00000080 00000000!         .bits   IntDefaultHandler,32            ; g_pfnVectors[32] @ 1024
      61 00000084 00000000!         .bits   IntDefaultHandler,32            ; g_pfnVectors[33] @ 1056
      62 00000088 00000000!         .bits   IntDefaultHandler,32            ; g_pfnVectors[34] @ 1088
      63 0000008c 00000000!         .bits   IntDefaultHandler,32            ; g_pfnVectors[35] @ 1120
      64 00000090 00000000!         .bits   IntDefaultHandler,32            ; g_pfnVectors[36] @ 1152
      65 00000094 00000000!         .bits   IntDefaultHandler,32            ; g_pfnVectors[37] @ 1184
      66 00000098 00000000!         .bits   IntDefaultHandler,32            ; g_pfnVectors[38] @ 1216
      67 0000009c 00000000!         .bits   IntDefaultHandler,32            ; g_pfnVectors[39] @ 1248
      68 000000a0 00000000!         .bits   IntDefaultHandler,32            ; g_pfnVectors[40] @ 1280
      69 000000a4 00000000!         .bits   IntDefaultHandler,32            ; g_pfnVectors[41] @ 1312
      70 000000a8 00000000!         .bits   IntDefaultHandler,32            ; g_pfnVectors[42] @ 1344
      71 000000ac 00000000!         .bits   IntDefaultHandler,32            ; g_pfnVectors[43] @ 1376
      72 000000b0 00000000!         .bits   IntDefaultHandler,32            ; g_pfnVectors[44] @ 1408
      73 000000b4 00000000!         .bits   IntDefaultHandler,32            ; g_pfnVectors[45] @ 1440
      74 000000b8 00000000!         .bits   IntDefaultHandler,32            ; g_pfnVectors[46] @ 1472
      75 000000bc 00000000!         .bits   IntDefaultHandler,32            ; g_pfnVectors[47] @ 1504
      76 000000c0 00000000!         .bits   IntDefaultHandler,32            ; g_pfnVectors[48] @ 1536
      77 000000c4 00000000!         .bits   IntDefaultHandler,32            ; g_pfnVectors[49] @ 1568
      78 000000c8 00000000!         .bits   IntDefaultHandler,32            ; g_pfnVectors[50] @ 1600
      79 000000cc 00000000!         .bits   IntDefaultHandler,32            ; g_pfnVectors[51] @ 1632
      80 000000d0 00000000!         .bits   IntDefaultHandler,32            ; g_pfnVectors[52] @ 1664
      81 000000d4 00000000!         .bits   IntDefaultHandler,32            ; g_pfnVectors[53] @ 1696
      82 000000d8 00000000!         .bits   IntDefaultHandler,32            ; g_pfnVectors[54] @ 1728
      83 000000dc 00000000!         .bits   IntDefaultHandler,32            ; g_pfnVectors[55] @ 1760
      84 000000e0 00000000!         .bits   IntDefaultHandler,32            ; g_pfnVectors[56] @ 1792
      85 000000e4 00000000          .bits   0,32                    ; g_pfnVectors[57] @ 1824
      86 000000e8 00000000          .bits   0,32                    ; g_pfnVectors[58] @ 1856
      87 000000ec 00000000!         .bits   IntDefaultHandler,32            ; g_pfnVectors[59] @ 1888
      88 000000f0 00000000!         .bits   IntDefaultHandler,32            ; g_pfnVectors[60] @ 1920
      89 000000f4 00000000!         .bits   IntDefaultHandler,32            ; g_pfnVectors[61] @ 1952
      90 000000f8 00000000!         .bits   IntDefaultHandler,32            ; g_pfnVectors[62] @ 1984
      91 000000fc 00000000!         .bits   IntDefaultHandler,32            ; g_pfnVectors[63] @ 2016
      92 00000100 00000000!         .bits   IntDefaultHandler,32            ; g_pfnVectors[64] @ 2048
      93 00000104 00000000!         .bits   IntDefaultHandler,32            ; g_pfnVectors[65] @ 2080
      94 00000108 00000000!         .bits   IntDefaultHandler,32            ; g_pfnVectors[66] @ 2112
      95 0000010c 00000000!         .bits   IntDefaultHandler,32            ; g_pfnVectors[67] @ 2144
      96 00000110 00000000          .bits   0,32                    ; g_pfnVectors[68] @ 2176
      97 00000114 00000000          .bits   0,32                    ; g_pfnVectors[69] @ 2208
      98 00000118 00000000!         .bits   IntDefaultHandler,32            ; g_pfnVectors[70] @ 2240
      99 0000011c 00000000!         .bits   IntDefaultHandler,32            ; g_pfnVectors[71] @ 2272
     100 00000120 00000000!         .bits   IntDefaultHandler,32            ; g_pfnVectors[72] @ 2304
     101 00000124 00000000!         .bits   IntDefaultHandler,32            ; g_pfnVectors[73] @ 2336
     102 00000128 00000000!         .bits   IntDefaultHandler,32            ; g_pfnVectors[74] @ 2368
     103 0000012c 00000000!         .bits   IntDefaultHandler,32            ; g_pfnVectors[75] @ 2400
     104 00000130 00000000!         .bits   IntDefaultHandler,32            ; g_pfnVectors[76] @ 2432
     105 00000134 00000000!         .bits   IntDefaultHandler,32            ; g_pfnVectors[77] @ 2464
     106 00000138 00000000!         .bits   IntDefaultHandler,32            ; g_pfnVectors[78] @ 2496
     107 0000013c 00000000!         .bits   IntDefaultHandler,32            ; g_pfnVectors[79] @ 2528
     108 00000140 00000000          .bits   0,32                    ; g_pfnVectors[80] @ 2560
     109 00000144 00000000          .bits   0,32                    ; g_pfnVectors[81] @ 2592
     110 00000148 00000000          .bits   0,32                    ; g_pfnVectors[82] @ 2624
TI ARM Assembler PC v16.9.1 Fri Jul 14 17:49:16 2017

Tools Copyright (c) 1996-2015 Texas Instruments Incorporated
C:\Users\admin\AppData\Local\Temp\1329210                            PAGE    3

     111 0000014c 00000000          .bits   0,32                    ; g_pfnVectors[83] @ 2656
     112 00000150 00000000!         .bits   IntDefaultHandler,32            ; g_pfnVectors[84] @ 2688
     113 00000154 00000000!         .bits   IntDefaultHandler,32            ; g_pfnVectors[85] @ 2720
     114 00000158 00000000!         .bits   IntDefaultHandler,32            ; g_pfnVectors[86] @ 2752
     115 0000015c 00000000!         .bits   IntDefaultHandler,32            ; g_pfnVectors[87] @ 2784
     116 00000160 00000000          .bits   0,32                    ; g_pfnVectors[88] @ 2816
     117 00000164 00000000          .bits   0,32                    ; g_pfnVectors[89] @ 2848
     118 00000168 00000000          .bits   0,32                    ; g_pfnVectors[90] @ 2880
     119 0000016c 00000000          .bits   0,32                    ; g_pfnVectors[91] @ 2912
     120 00000170 00000000          .bits   0,32                    ; g_pfnVectors[92] @ 2944
     121 00000174 00000000          .bits   0,32                    ; g_pfnVectors[93] @ 2976
     122 00000178 00000000          .bits   0,32                    ; g_pfnVectors[94] @ 3008
     123 0000017c 00000000          .bits   0,32                    ; g_pfnVectors[95] @ 3040
     124 00000180 00000000          .bits   0,32                    ; g_pfnVectors[96] @ 3072
     125 00000184 00000000          .bits   0,32                    ; g_pfnVectors[97] @ 3104
     126 00000188 00000000          .bits   0,32                    ; g_pfnVectors[98] @ 3136
     127 0000018c 00000000          .bits   0,32                    ; g_pfnVectors[99] @ 3168
     128 00000190 00000000          .bits   0,32                    ; g_pfnVectors[100] @ 3200
     129 00000194 00000000          .bits   0,32                    ; g_pfnVectors[101] @ 3232
     130 00000198 00000000          .bits   0,32                    ; g_pfnVectors[102] @ 3264
     131 0000019c 00000000          .bits   0,32                    ; g_pfnVectors[103] @ 3296
     132 000001a0 00000000          .bits   0,32                    ; g_pfnVectors[104] @ 3328
     133 000001a4 00000000          .bits   0,32                    ; g_pfnVectors[105] @ 3360
     134 000001a8 00000000          .bits   0,32                    ; g_pfnVectors[106] @ 3392
     135 000001ac 00000000          .bits   0,32                    ; g_pfnVectors[107] @ 3424
     136 000001b0 00000000!         .bits   IntDefaultHandler,32            ; g_pfnVectors[108] @ 3456
     137 000001b4 00000000!         .bits   IntDefaultHandler,32            ; g_pfnVectors[109] @ 3488
     138 000001b8 00000000!         .bits   IntDefaultHandler,32            ; g_pfnVectors[110] @ 3520
     139 000001bc 00000000!         .bits   IntDefaultHandler,32            ; g_pfnVectors[111] @ 3552
     140 000001c0 00000000!         .bits   IntDefaultHandler,32            ; g_pfnVectors[112] @ 3584
     141 000001c4 00000000!         .bits   IntDefaultHandler,32            ; g_pfnVectors[113] @ 3616
     142 000001c8 00000000!         .bits   IntDefaultHandler,32            ; g_pfnVectors[114] @ 3648
     143 000001cc 00000000!         .bits   IntDefaultHandler,32            ; g_pfnVectors[115] @ 3680
     144 000001d0 00000000!         .bits   IntDefaultHandler,32            ; g_pfnVectors[116] @ 3712
     145 000001d4 00000000!         .bits   IntDefaultHandler,32            ; g_pfnVectors[117] @ 3744
     146 000001d8 00000000!         .bits   IntDefaultHandler,32            ; g_pfnVectors[118] @ 3776
     147 000001dc 00000000!         .bits   IntDefaultHandler,32            ; g_pfnVectors[119] @ 3808
     148 000001e0 00000000!         .bits   IntDefaultHandler,32            ; g_pfnVectors[120] @ 3840
     149 000001e4 00000000!         .bits   IntDefaultHandler,32            ; g_pfnVectors[121] @ 3872
     150 000001e8 00000000!         .bits   IntDefaultHandler,32            ; g_pfnVectors[122] @ 3904
     151 000001ec 00000000          .bits   0,32                    ; g_pfnVectors[123] @ 3936
     152 000001f0 00000000          .bits   0,32                    ; g_pfnVectors[124] @ 3968
     153 000001f4 00000000!         .bits   IntDefaultHandler,32            ; g_pfnVectors[125] @ 4000
     154 000001f8 00000000!         .bits   IntDefaultHandler,32            ; g_pfnVectors[126] @ 4032
     155 000001fc 00000000!         .bits   IntDefaultHandler,32            ; g_pfnVectors[127] @ 4064
     156 00000200 00000000!         .bits   IntDefaultHandler,32            ; g_pfnVectors[128] @ 4096
     157 00000204 00000000!         .bits   IntDefaultHandler,32            ; g_pfnVectors[129] @ 4128
     158 00000208 00000000          .bits   0,32                    ; g_pfnVectors[130] @ 4160
     159 0000020c 00000000          .bits   0,32                    ; g_pfnVectors[131] @ 4192
     160 00000210 00000000!         .bits   IntDefaultHandler,32            ; g_pfnVectors[132] @ 4224
     161 00000214 00000000!         .bits   IntDefaultHandler,32            ; g_pfnVectors[133] @ 4256
     162 00000218 00000000!         .bits   IntDefaultHandler,32            ; g_pfnVectors[134] @ 4288
     163 0000021c 00000000!         .bits   IntDefaultHandler,32            ; g_pfnVectors[135] @ 4320
     164 00000220 00000000!         .bits   IntDefaultHandler,32            ; g_pfnVectors[136] @ 4352
     165 00000224 00000000!         .bits   IntDefaultHandler,32            ; g_pfnVectors[137] @ 4384
TI ARM Assembler PC v16.9.1 Fri Jul 14 17:49:16 2017

Tools Copyright (c) 1996-2015 Texas Instruments Incorporated
C:\Users\admin\AppData\Local\Temp\1329210                            PAGE    4

     166 00000228 00000000!         .bits   IntDefaultHandler,32            ; g_pfnVectors[138] @ 4416
     167 0000022c 00000000!         .bits   IntDefaultHandler,32            ; g_pfnVectors[139] @ 4448
     168 00000230 00000000!         .bits   IntDefaultHandler,32            ; g_pfnVectors[140] @ 4480
     169 00000234 00000000!         .bits   IntDefaultHandler,32            ; g_pfnVectors[141] @ 4512
     170 00000238 00000000!         .bits   IntDefaultHandler,32            ; g_pfnVectors[142] @ 4544
     171 0000023c 00000000!         .bits   IntDefaultHandler,32            ; g_pfnVectors[143] @ 4576
     172 00000240 00000000!         .bits   IntDefaultHandler,32            ; g_pfnVectors[144] @ 4608
     173 00000244 00000000!         .bits   IntDefaultHandler,32            ; g_pfnVectors[145] @ 4640
     174 00000248 00000000!         .bits   IntDefaultHandler,32            ; g_pfnVectors[146] @ 4672
     175 0000024c 00000000!         .bits   IntDefaultHandler,32            ; g_pfnVectors[147] @ 4704
     176 00000250 00000000!         .bits   IntDefaultHandler,32            ; g_pfnVectors[148] @ 4736
     177 00000254 00000000!         .bits   IntDefaultHandler,32            ; g_pfnVectors[149] @ 4768
     178 00000258 00000000!         .bits   IntDefaultHandler,32            ; g_pfnVectors[150] @ 4800
     179 0000025c 00000000!         .bits   IntDefaultHandler,32            ; g_pfnVectors[151] @ 4832
     180 00000260 00000000!         .bits   IntDefaultHandler,32            ; g_pfnVectors[152] @ 4864
     181 00000264 00000000!         .bits   IntDefaultHandler,32            ; g_pfnVectors[153] @ 4896
     182 00000268 00000000!         .bits   IntDefaultHandler,32            ; g_pfnVectors[154] @ 4928
     183                    
     184                    $C$DW$2 .dwtag  DW_TAG_variable
     185                            .dwattr $C$DW$2, DW_AT_name("g_pfnVectors")
     186                            .dwattr $C$DW$2, DW_AT_TI_symbol_name("g_pfnVectors")
     187                            .dwattr $C$DW$2, DW_AT_location[DW_OP_addr g_pfnVectors]
     188                            .dwattr $C$DW$2, DW_AT_type(*$C$DW$T$22)
     189                            .dwattr $C$DW$2, DW_AT_external
     190                            .dwattr $C$DW$2, DW_AT_decl_file("../tm4c123gh6pm_startup_ccs.c")
     191                            .dwattr $C$DW$2, DW_AT_decl_line(0x43)
     192                            .dwattr $C$DW$2, DW_AT_decl_column(0x0f)
     193                    
     194                    ;       C:\ti\ccsv7\tools\compiler\ti-cgt-arm_16.9.1.LTS\bin\armacpia.exe -@C:\\Users\\admin\\AppData\
     195 00000000                   .sect   ".text"
     196                            .clink
     197                            .thumbfunc ResetISR
     198 00000000                   .thumb
     199                            .global ResetISR
     200                    
     201                    $C$DW$3 .dwtag  DW_TAG_subprogram
     202                            .dwattr $C$DW$3, DW_AT_name("ResetISR")
     203                            .dwattr $C$DW$3, DW_AT_low_pc(ResetISR)
     204                            .dwattr $C$DW$3, DW_AT_high_pc(0x00)
     205                            .dwattr $C$DW$3, DW_AT_TI_symbol_name("ResetISR")
     206                            .dwattr $C$DW$3, DW_AT_external
     207                            .dwattr $C$DW$3, DW_AT_TI_begin_file("../tm4c123gh6pm_startup_ccs.c")
     208                            .dwattr $C$DW$3, DW_AT_TI_begin_line(0xee)
     209                            .dwattr $C$DW$3, DW_AT_TI_begin_column(0x01)
     210                            .dwattr $C$DW$3, DW_AT_decl_file("../tm4c123gh6pm_startup_ccs.c")
     211                            .dwattr $C$DW$3, DW_AT_decl_line(0xee)
     212                            .dwattr $C$DW$3, DW_AT_decl_column(0x01)
     213                            .dwattr $C$DW$3, DW_AT_TI_max_frame_size(0x00)
     214                            .dwpsn  file "../tm4c123gh6pm_startup_ccs.c",line 239,column 1,is_stmt,address ResetISR,isa 1
     215                    
     216                            .dwfde $C$DW$CIE, ResetISR
     217                    
     218                    ;*****************************************************************************
     219                    ;* FUNCTION NAME: ResetISR                                                   *
     220                    ;*                                                                           *
TI ARM Assembler PC v16.9.1 Fri Jul 14 17:49:16 2017

Tools Copyright (c) 1996-2015 Texas Instruments Incorporated
C:\Users\admin\AppData\Local\Temp\1329210                            PAGE    5

     221                    ;*   Regs Modified     :                                                     *
     222                    ;*   Regs Used         : LR                                                  *
     223                    ;*   Local Frame Size  : 0 Args + 0 Auto + 0 Save = 0 byte                   *
     224                    ;*****************************************************************************
     225 00000000           ResetISR:
     226                    ;* --------------------------------------------------------------------------*
     227                            .dwcfi  cfa_offset, 0
     228                            .dwpsn  file "../tm4c123gh6pm_startup_ccs.c",line 244,column 5,is_stmt,isa 1
     229                        .global _c_int00
     230 00000000 BFFEF7FF!     b.w     _c_int00 ; [KEEP 32-BIT INS]
     231                            .dwpsn  file "../tm4c123gh6pm_startup_ccs.c",line 246,column 1,is_stmt,isa 1
     232                    $C$DW$4 .dwtag  DW_TAG_TI_branch
     233                            .dwattr $C$DW$4, DW_AT_low_pc(0x00)
     234                            .dwattr $C$DW$4, DW_AT_TI_return
     235                    
     236 00000004 4770              BX        LR                    ; [DPU_3_PIPE]  ; [ORIG 16-BIT INS]
     237                            ; BRANCH OCCURS                  ; [] 
     238                            .dwattr $C$DW$3, DW_AT_TI_end_file("../tm4c123gh6pm_startup_ccs.c")
     239                            .dwattr $C$DW$3, DW_AT_TI_end_line(0xf6)
     240                            .dwattr $C$DW$3, DW_AT_TI_end_column(0x01)
     241                            .dwendentry
     242                            .dwendtag $C$DW$3
     243                    
     244 00000006                   .sect   ".text"
     245                            .clink
     246                            .thumbfunc NmiSR
     247 00000006                   .thumb
     248                    
     249                    $C$DW$5 .dwtag  DW_TAG_subprogram
     250                            .dwattr $C$DW$5, DW_AT_name("NmiSR")
     251                            .dwattr $C$DW$5, DW_AT_low_pc(NmiSR)
     252                            .dwattr $C$DW$5, DW_AT_high_pc(0x00)
     253                            .dwattr $C$DW$5, DW_AT_TI_symbol_name("NmiSR")
     254                            .dwattr $C$DW$5, DW_AT_TI_begin_file("../tm4c123gh6pm_startup_ccs.c")
     255                            .dwattr $C$DW$5, DW_AT_TI_begin_line(0x100)
     256                            .dwattr $C$DW$5, DW_AT_TI_begin_column(0x01)
     257                            .dwattr $C$DW$5, DW_AT_decl_file("../tm4c123gh6pm_startup_ccs.c")
     258                            .dwattr $C$DW$5, DW_AT_decl_line(0x100)
     259                            .dwattr $C$DW$5, DW_AT_decl_column(0x01)
     260                            .dwattr $C$DW$5, DW_AT_TI_max_frame_size(0x00)
     261                            .dwpsn  file "../tm4c123gh6pm_startup_ccs.c",line 257,column 1,is_stmt,address NmiSR,isa 1
     262                    
     263                            .dwfde $C$DW$CIE, NmiSR
     264                    
     265                    ;*****************************************************************************
     266                    ;* FUNCTION NAME: NmiSR                                                      *
     267                    ;*                                                                           *
     268                    ;*   Regs Modified     :                                                     *
     269                    ;*   Regs Used         : LR                                                  *
     270                    ;*   Local Frame Size  : 0 Args + 0 Auto + 0 Save = 0 byte                   *
     271                    ;*****************************************************************************
     272 00000006           NmiSR:
     273                    ;* --------------------------------------------------------------------------*
     274                            .dwcfi  cfa_offset, 0
     275                            .dwpsn  file "../tm4c123gh6pm_startup_ccs.c",line 261,column 11,is_stmt,isa 1
TI ARM Assembler PC v16.9.1 Fri Jul 14 17:49:16 2017

Tools Copyright (c) 1996-2015 Texas Instruments Incorporated
C:\Users\admin\AppData\Local\Temp\1329210                            PAGE    6

     276                    ;* --------------------------------------------------------------------------*
     277                    ;*   BEGIN LOOP ||$C$L1||
     278                    ;*
     279                    ;*   Loop source line                : 261
     280                    ;*   Loop closing brace source line  : 263
     281                    ;*   Known Minimum Trip Count        : 1
     282                    ;*   Known Maximum Trip Count        : 4294967295
     283                    ;*   Known Max Trip Count Factor     : 1
     284                    ;* --------------------------------------------------------------------------*
     285 00000006           ||$C$L1||:    
     286 00000006 E7FE              B         ||$C$L1||             ; [DPU_3_PIPE] |261|  ; [ORIG 16-BIT INS]
     287                            ; BRANCH OCCURS {||$C$L1||}      ; [] |261| 
     288                    ;* --------------------------------------------------------------------------*
     289                            .dwattr $C$DW$5, DW_AT_TI_end_file("../tm4c123gh6pm_startup_ccs.c")
     290                            .dwattr $C$DW$5, DW_AT_TI_end_line(0x108)
     291                            .dwattr $C$DW$5, DW_AT_TI_end_column(0x01)
     292                            .dwendentry
     293                            .dwendtag $C$DW$5
     294                    
     295 00000008                   .sect   ".text"
     296                            .clink
     297                            .thumbfunc FaultISR
     298 00000008                   .thumb
     299                    
     300                    $C$DW$6 .dwtag  DW_TAG_subprogram
     301                            .dwattr $C$DW$6, DW_AT_name("FaultISR")
     302                            .dwattr $C$DW$6, DW_AT_low_pc(FaultISR)
     303                            .dwattr $C$DW$6, DW_AT_high_pc(0x00)
     304                            .dwattr $C$DW$6, DW_AT_TI_symbol_name("FaultISR")
     305                            .dwattr $C$DW$6, DW_AT_TI_begin_file("../tm4c123gh6pm_startup_ccs.c")
     306                            .dwattr $C$DW$6, DW_AT_TI_begin_line(0x112)
     307                            .dwattr $C$DW$6, DW_AT_TI_begin_column(0x01)
     308                            .dwattr $C$DW$6, DW_AT_decl_file("../tm4c123gh6pm_startup_ccs.c")
     309                            .dwattr $C$DW$6, DW_AT_decl_line(0x112)
     310                            .dwattr $C$DW$6, DW_AT_decl_column(0x01)
     311                            .dwattr $C$DW$6, DW_AT_TI_max_frame_size(0x00)
     312                            .dwpsn  file "../tm4c123gh6pm_startup_ccs.c",line 275,column 1,is_stmt,address FaultISR,isa 1
     313                    
     314                            .dwfde $C$DW$CIE, FaultISR
     315                    
     316                    ;*****************************************************************************
     317                    ;* FUNCTION NAME: FaultISR                                                   *
     318                    ;*                                                                           *
     319                    ;*   Regs Modified     :                                                     *
     320                    ;*   Regs Used         : LR                                                  *
     321                    ;*   Local Frame Size  : 0 Args + 0 Auto + 0 Save = 0 byte                   *
     322                    ;*****************************************************************************
     323 00000008           FaultISR:
     324                    ;* --------------------------------------------------------------------------*
     325                            .dwcfi  cfa_offset, 0
     326                            .dwpsn  file "../tm4c123gh6pm_startup_ccs.c",line 279,column 11,is_stmt,isa 1
     327                    ;* --------------------------------------------------------------------------*
     328                    ;*   BEGIN LOOP ||$C$L2||
     329                    ;*
     330                    ;*   Loop source line                : 279
TI ARM Assembler PC v16.9.1 Fri Jul 14 17:49:16 2017

Tools Copyright (c) 1996-2015 Texas Instruments Incorporated
C:\Users\admin\AppData\Local\Temp\1329210                            PAGE    7

     331                    ;*   Loop closing brace source line  : 281
     332                    ;*   Known Minimum Trip Count        : 1
     333                    ;*   Known Maximum Trip Count        : 4294967295
     334                    ;*   Known Max Trip Count Factor     : 1
     335                    ;* --------------------------------------------------------------------------*
     336 00000008           ||$C$L2||:    
     337 00000008 E7FE              B         ||$C$L2||             ; [DPU_3_PIPE] |279|  ; [ORIG 16-BIT INS]
     338                            ; BRANCH OCCURS {||$C$L2||}      ; [] |279| 
     339                    ;* --------------------------------------------------------------------------*
     340                            .dwattr $C$DW$6, DW_AT_TI_end_file("../tm4c123gh6pm_startup_ccs.c")
     341                            .dwattr $C$DW$6, DW_AT_TI_end_line(0x11a)
     342                            .dwattr $C$DW$6, DW_AT_TI_end_column(0x01)
     343                            .dwendentry
     344                            .dwendtag $C$DW$6
     345                    
     346 0000000a                   .sect   ".text"
     347                            .clink
     348                            .thumbfunc IntDefaultHandler
     349 0000000a                   .thumb
     350                    
     351                    $C$DW$7 .dwtag  DW_TAG_subprogram
     352                            .dwattr $C$DW$7, DW_AT_name("IntDefaultHandler")
     353                            .dwattr $C$DW$7, DW_AT_low_pc(IntDefaultHandler)
     354                            .dwattr $C$DW$7, DW_AT_high_pc(0x00)
     355                            .dwattr $C$DW$7, DW_AT_TI_symbol_name("IntDefaultHandler")
     356                            .dwattr $C$DW$7, DW_AT_TI_begin_file("../tm4c123gh6pm_startup_ccs.c")
     357                            .dwattr $C$DW$7, DW_AT_TI_begin_line(0x124)
     358                            .dwattr $C$DW$7, DW_AT_TI_begin_column(0x01)
     359                            .dwattr $C$DW$7, DW_AT_decl_file("../tm4c123gh6pm_startup_ccs.c")
     360                            .dwattr $C$DW$7, DW_AT_decl_line(0x124)
     361                            .dwattr $C$DW$7, DW_AT_decl_column(0x01)
     362                            .dwattr $C$DW$7, DW_AT_TI_max_frame_size(0x00)
     363                            .dwpsn  file "../tm4c123gh6pm_startup_ccs.c",line 293,column 1,is_stmt,address IntDefaultHandl
     364                    
     365                            .dwfde $C$DW$CIE, IntDefaultHandler
     366                    
     367                    ;*****************************************************************************
     368                    ;* FUNCTION NAME: IntDefaultHandler                                          *
     369                    ;*                                                                           *
     370                    ;*   Regs Modified     :                                                     *
     371                    ;*   Regs Used         : LR                                                  *
     372                    ;*   Local Frame Size  : 0 Args + 0 Auto + 0 Save = 0 byte                   *
     373                    ;*****************************************************************************
     374 0000000a           IntDefaultHandler:
     375                    ;* --------------------------------------------------------------------------*
     376                            .dwcfi  cfa_offset, 0
     377                            .dwpsn  file "../tm4c123gh6pm_startup_ccs.c",line 297,column 11,is_stmt,isa 1
     378                    ;* --------------------------------------------------------------------------*
     379                    ;*   BEGIN LOOP ||$C$L3||
     380                    ;*
     381                    ;*   Loop source line                : 297
     382                    ;*   Loop closing brace source line  : 299
     383                    ;*   Known Minimum Trip Count        : 1
     384                    ;*   Known Maximum Trip Count        : 4294967295
     385                    ;*   Known Max Trip Count Factor     : 1
TI ARM Assembler PC v16.9.1 Fri Jul 14 17:49:16 2017

Tools Copyright (c) 1996-2015 Texas Instruments Incorporated
C:\Users\admin\AppData\Local\Temp\1329210                            PAGE    8

     386                    ;* --------------------------------------------------------------------------*
     387 0000000a           ||$C$L3||:    
     388 0000000a E7FE              B         ||$C$L3||             ; [DPU_3_PIPE] |297|  ; [ORIG 16-BIT INS]
     389                            ; BRANCH OCCURS {||$C$L3||}      ; [] |297| 
     390                    ;* --------------------------------------------------------------------------*
     391                            .dwattr $C$DW$7, DW_AT_TI_end_file("../tm4c123gh6pm_startup_ccs.c")
     392                            .dwattr $C$DW$7, DW_AT_TI_end_line(0x12c)
     393                            .dwattr $C$DW$7, DW_AT_TI_end_column(0x01)
     394                            .dwendentry
     395                            .dwendtag $C$DW$7
     396                    
     397                    ;*****************************************************************************
     398                    ;* UNDEFINED EXTERNAL REFERENCES                                             *
     399                    ;*****************************************************************************
     400                            .global __STACK_TOP
     401                    
     402                    ;******************************************************************************
     403                    ;* BUILD ATTRIBUTES                                                           *
     404                    ;******************************************************************************
     405                            .battr "aeabi", Tag_File, 1, Tag_ABI_PCS_wchar_t(2)
     406                            .battr "aeabi", Tag_File, 1, Tag_ABI_FP_rounding(0)
     407                            .battr "aeabi", Tag_File, 1, Tag_ABI_FP_denormal(0)
     408                            .battr "aeabi", Tag_File, 1, Tag_ABI_FP_exceptions(0)
     409                            .battr "aeabi", Tag_File, 1, Tag_ABI_FP_number_model(1)
     410                            .battr "aeabi", Tag_File, 1, Tag_ABI_enum_size(0)
     411                            .battr "aeabi", Tag_File, 1, Tag_ABI_optimization_goals(5)
     412                            .battr "aeabi", Tag_File, 1, Tag_ABI_FP_optimization_goals(0)
     413                            .battr "TI", Tag_File, 1, Tag_Bitfield_layout(2)
     414                            .battr "aeabi", Tag_File, 1, Tag_ABI_VFP_args(3)
     415                            .battr "TI", Tag_File, 1, Tag_FP_interface(1)
     416                    
     417                    ;******************************************************************************
     418                    ;* TYPE INFORMATION                                                           *
     419                    ;******************************************************************************
     420                    $C$DW$T$2       .dwtag  DW_TAG_unspecified_type
     421                            .dwattr $C$DW$T$2, DW_AT_name("void")
     422                    
     423                    
     424                    $C$DW$T$19      .dwtag  DW_TAG_subroutine_type
     425                            .dwattr $C$DW$T$19, DW_AT_language(DW_LANG_C)
     426                            .dwendtag $C$DW$T$19
     427                    
     428                    $C$DW$T$20      .dwtag  DW_TAG_pointer_type
     429                            .dwattr $C$DW$T$20, DW_AT_type(*$C$DW$T$19)
     430                            .dwattr $C$DW$T$20, DW_AT_address_class(0x20)
     431                    
     432                    $C$DW$T$21      .dwtag  DW_TAG_const_type
     433                            .dwattr $C$DW$T$21, DW_AT_type(*$C$DW$T$20)
     434                    
     435                    
     436                    $C$DW$T$22      .dwtag  DW_TAG_array_type
     437                            .dwattr $C$DW$T$22, DW_AT_type(*$C$DW$T$21)
     438                            .dwattr $C$DW$T$22, DW_AT_language(DW_LANG_C)
     439                            .dwattr $C$DW$T$22, DW_AT_byte_size(0x26c)
     440                    $C$DW$8 .dwtag  DW_TAG_subrange_type
TI ARM Assembler PC v16.9.1 Fri Jul 14 17:49:16 2017

Tools Copyright (c) 1996-2015 Texas Instruments Incorporated
C:\Users\admin\AppData\Local\Temp\1329210                            PAGE    9

     441                            .dwattr $C$DW$8, DW_AT_upper_bound(0x9a)
     442                    
     443                            .dwendtag $C$DW$T$22
     444                    
     445                    $C$DW$T$4       .dwtag  DW_TAG_base_type
     446                            .dwattr $C$DW$T$4, DW_AT_encoding(DW_ATE_boolean)
     447                            .dwattr $C$DW$T$4, DW_AT_name("bool")
     448                            .dwattr $C$DW$T$4, DW_AT_byte_size(0x01)
     449                    
     450                    $C$DW$T$5       .dwtag  DW_TAG_base_type
     451                            .dwattr $C$DW$T$5, DW_AT_encoding(DW_ATE_signed_char)
     452                            .dwattr $C$DW$T$5, DW_AT_name("signed char")
     453                            .dwattr $C$DW$T$5, DW_AT_byte_size(0x01)
     454                    
     455                    $C$DW$T$23      .dwtag  DW_TAG_typedef
     456                            .dwattr $C$DW$T$23, DW_AT_name("int8_t")
     457                            .dwattr $C$DW$T$23, DW_AT_type(*$C$DW$T$5)
     458                            .dwattr $C$DW$T$23, DW_AT_language(DW_LANG_C)
     459                            .dwattr $C$DW$T$23, DW_AT_decl_file("C:/ti/ccsv7/tools/compiler/ti-cgt-arm_16.9.1.LTS/include/
     460                            .dwattr $C$DW$T$23, DW_AT_decl_line(0x2a)
     461                            .dwattr $C$DW$T$23, DW_AT_decl_column(0x1d)
     462                    
     463                    $C$DW$T$24      .dwtag  DW_TAG_typedef
     464                            .dwattr $C$DW$T$24, DW_AT_name("int_least8_t")
     465                            .dwattr $C$DW$T$24, DW_AT_type(*$C$DW$T$23)
     466                            .dwattr $C$DW$T$24, DW_AT_language(DW_LANG_C)
     467                            .dwattr $C$DW$T$24, DW_AT_decl_file("C:/ti/ccsv7/tools/compiler/ti-cgt-arm_16.9.1.LTS/include/
     468                            .dwattr $C$DW$T$24, DW_AT_decl_line(0x37)
     469                            .dwattr $C$DW$T$24, DW_AT_decl_column(0x17)
     470                    
     471                    $C$DW$T$6       .dwtag  DW_TAG_base_type
     472                            .dwattr $C$DW$T$6, DW_AT_encoding(DW_ATE_unsigned_char)
     473                            .dwattr $C$DW$T$6, DW_AT_name("unsigned char")
     474                            .dwattr $C$DW$T$6, DW_AT_byte_size(0x01)
     475                    
     476                    $C$DW$T$25      .dwtag  DW_TAG_typedef
     477                            .dwattr $C$DW$T$25, DW_AT_name("uint8_t")
     478                            .dwattr $C$DW$T$25, DW_AT_type(*$C$DW$T$6)
     479                            .dwattr $C$DW$T$25, DW_AT_language(DW_LANG_C)
     480                            .dwattr $C$DW$T$25, DW_AT_decl_file("C:/ti/ccsv7/tools/compiler/ti-cgt-arm_16.9.1.LTS/include/
     481                            .dwattr $C$DW$T$25, DW_AT_decl_line(0x2b)
     482                            .dwattr $C$DW$T$25, DW_AT_decl_column(0x1c)
     483                    
     484                    $C$DW$T$26      .dwtag  DW_TAG_typedef
     485                            .dwattr $C$DW$T$26, DW_AT_name("uint_least8_t")
     486                            .dwattr $C$DW$T$26, DW_AT_type(*$C$DW$T$25)
     487                            .dwattr $C$DW$T$26, DW_AT_language(DW_LANG_C)
     488                            .dwattr $C$DW$T$26, DW_AT_decl_file("C:/ti/ccsv7/tools/compiler/ti-cgt-arm_16.9.1.LTS/include/
     489                            .dwattr $C$DW$T$26, DW_AT_decl_line(0x38)
     490                            .dwattr $C$DW$T$26, DW_AT_decl_column(0x16)
     491                    
     492                    $C$DW$T$7       .dwtag  DW_TAG_base_type
     493                            .dwattr $C$DW$T$7, DW_AT_encoding(DW_ATE_signed_char)
     494                            .dwattr $C$DW$T$7, DW_AT_name("wchar_t")
     495                            .dwattr $C$DW$T$7, DW_AT_byte_size(0x02)
TI ARM Assembler PC v16.9.1 Fri Jul 14 17:49:16 2017

Tools Copyright (c) 1996-2015 Texas Instruments Incorporated
C:\Users\admin\AppData\Local\Temp\1329210                            PAGE   10

     496                    
     497                    $C$DW$T$8       .dwtag  DW_TAG_base_type
     498                            .dwattr $C$DW$T$8, DW_AT_encoding(DW_ATE_signed)
     499                            .dwattr $C$DW$T$8, DW_AT_name("short")
     500                            .dwattr $C$DW$T$8, DW_AT_byte_size(0x02)
     501                    
     502                    $C$DW$T$27      .dwtag  DW_TAG_typedef
     503                            .dwattr $C$DW$T$27, DW_AT_name("int16_t")
     504                            .dwattr $C$DW$T$27, DW_AT_type(*$C$DW$T$8)
     505                            .dwattr $C$DW$T$27, DW_AT_language(DW_LANG_C)
     506                            .dwattr $C$DW$T$27, DW_AT_decl_file("C:/ti/ccsv7/tools/compiler/ti-cgt-arm_16.9.1.LTS/include/
     507                            .dwattr $C$DW$T$27, DW_AT_decl_line(0x2c)
     508                            .dwattr $C$DW$T$27, DW_AT_decl_column(0x1d)
     509                    
     510                    $C$DW$T$28      .dwtag  DW_TAG_typedef
     511                            .dwattr $C$DW$T$28, DW_AT_name("int_least16_t")
     512                            .dwattr $C$DW$T$28, DW_AT_type(*$C$DW$T$27)
     513                            .dwattr $C$DW$T$28, DW_AT_language(DW_LANG_C)
     514                            .dwattr $C$DW$T$28, DW_AT_decl_file("C:/ti/ccsv7/tools/compiler/ti-cgt-arm_16.9.1.LTS/include/
     515                            .dwattr $C$DW$T$28, DW_AT_decl_line(0x3a)
     516                            .dwattr $C$DW$T$28, DW_AT_decl_column(0x17)
     517                    
     518                    $C$DW$T$9       .dwtag  DW_TAG_base_type
     519                            .dwattr $C$DW$T$9, DW_AT_encoding(DW_ATE_unsigned)
     520                            .dwattr $C$DW$T$9, DW_AT_name("unsigned short")
     521                            .dwattr $C$DW$T$9, DW_AT_byte_size(0x02)
     522                    
     523                    $C$DW$T$29      .dwtag  DW_TAG_typedef
     524                            .dwattr $C$DW$T$29, DW_AT_name("uint16_t")
     525                            .dwattr $C$DW$T$29, DW_AT_type(*$C$DW$T$9)
     526                            .dwattr $C$DW$T$29, DW_AT_language(DW_LANG_C)
     527                            .dwattr $C$DW$T$29, DW_AT_decl_file("C:/ti/ccsv7/tools/compiler/ti-cgt-arm_16.9.1.LTS/include/
     528                            .dwattr $C$DW$T$29, DW_AT_decl_line(0x2d)
     529                            .dwattr $C$DW$T$29, DW_AT_decl_column(0x1c)
     530                    
     531                    $C$DW$T$30      .dwtag  DW_TAG_typedef
     532                            .dwattr $C$DW$T$30, DW_AT_name("uint_least16_t")
     533                            .dwattr $C$DW$T$30, DW_AT_type(*$C$DW$T$29)
     534                            .dwattr $C$DW$T$30, DW_AT_language(DW_LANG_C)
     535                            .dwattr $C$DW$T$30, DW_AT_decl_file("C:/ti/ccsv7/tools/compiler/ti-cgt-arm_16.9.1.LTS/include/
     536                            .dwattr $C$DW$T$30, DW_AT_decl_line(0x3b)
     537                            .dwattr $C$DW$T$30, DW_AT_decl_column(0x16)
     538                    
     539                    $C$DW$T$10      .dwtag  DW_TAG_base_type
     540                            .dwattr $C$DW$T$10, DW_AT_encoding(DW_ATE_signed)
     541                            .dwattr $C$DW$T$10, DW_AT_name("int")
     542                            .dwattr $C$DW$T$10, DW_AT_byte_size(0x04)
     543                    
     544                    $C$DW$T$31      .dwtag  DW_TAG_typedef
     545                            .dwattr $C$DW$T$31, DW_AT_name("int32_t")
     546                            .dwattr $C$DW$T$31, DW_AT_type(*$C$DW$T$10)
     547                            .dwattr $C$DW$T$31, DW_AT_language(DW_LANG_C)
     548                            .dwattr $C$DW$T$31, DW_AT_decl_file("C:/ti/ccsv7/tools/compiler/ti-cgt-arm_16.9.1.LTS/include/
     549                            .dwattr $C$DW$T$31, DW_AT_decl_line(0x2e)
     550                            .dwattr $C$DW$T$31, DW_AT_decl_column(0x1d)
TI ARM Assembler PC v16.9.1 Fri Jul 14 17:49:16 2017

Tools Copyright (c) 1996-2015 Texas Instruments Incorporated
C:\Users\admin\AppData\Local\Temp\1329210                            PAGE   11

     551                    
     552                    $C$DW$T$32      .dwtag  DW_TAG_typedef
     553                            .dwattr $C$DW$T$32, DW_AT_name("int_fast16_t")
     554                            .dwattr $C$DW$T$32, DW_AT_type(*$C$DW$T$31)
     555                            .dwattr $C$DW$T$32, DW_AT_language(DW_LANG_C)
     556                            .dwattr $C$DW$T$32, DW_AT_decl_file("C:/ti/ccsv7/tools/compiler/ti-cgt-arm_16.9.1.LTS/include/
     557                            .dwattr $C$DW$T$32, DW_AT_decl_line(0x47)
     558                            .dwattr $C$DW$T$32, DW_AT_decl_column(0x17)
     559                    
     560                    $C$DW$T$33      .dwtag  DW_TAG_typedef
     561                            .dwattr $C$DW$T$33, DW_AT_name("int_fast32_t")
     562                            .dwattr $C$DW$T$33, DW_AT_type(*$C$DW$T$31)
     563                            .dwattr $C$DW$T$33, DW_AT_language(DW_LANG_C)
     564                            .dwattr $C$DW$T$33, DW_AT_decl_file("C:/ti/ccsv7/tools/compiler/ti-cgt-arm_16.9.1.LTS/include/
     565                            .dwattr $C$DW$T$33, DW_AT_decl_line(0x4a)
     566                            .dwattr $C$DW$T$33, DW_AT_decl_column(0x17)
     567                    
     568                    $C$DW$T$34      .dwtag  DW_TAG_typedef
     569                            .dwattr $C$DW$T$34, DW_AT_name("int_fast8_t")
     570                            .dwattr $C$DW$T$34, DW_AT_type(*$C$DW$T$31)
     571                            .dwattr $C$DW$T$34, DW_AT_language(DW_LANG_C)
     572                            .dwattr $C$DW$T$34, DW_AT_decl_file("C:/ti/ccsv7/tools/compiler/ti-cgt-arm_16.9.1.LTS/include/
     573                            .dwattr $C$DW$T$34, DW_AT_decl_line(0x45)
     574                            .dwattr $C$DW$T$34, DW_AT_decl_column(0x17)
     575                    
     576                    $C$DW$T$35      .dwtag  DW_TAG_typedef
     577                            .dwattr $C$DW$T$35, DW_AT_name("int_least32_t")
     578                            .dwattr $C$DW$T$35, DW_AT_type(*$C$DW$T$31)
     579                            .dwattr $C$DW$T$35, DW_AT_language(DW_LANG_C)
     580                            .dwattr $C$DW$T$35, DW_AT_decl_file("C:/ti/ccsv7/tools/compiler/ti-cgt-arm_16.9.1.LTS/include/
     581                            .dwattr $C$DW$T$35, DW_AT_decl_line(0x3c)
     582                            .dwattr $C$DW$T$35, DW_AT_decl_column(0x17)
     583                    
     584                    $C$DW$T$36      .dwtag  DW_TAG_typedef
     585                            .dwattr $C$DW$T$36, DW_AT_name("intptr_t")
     586                            .dwattr $C$DW$T$36, DW_AT_type(*$C$DW$T$10)
     587                            .dwattr $C$DW$T$36, DW_AT_language(DW_LANG_C)
     588                            .dwattr $C$DW$T$36, DW_AT_decl_file("C:/ti/ccsv7/tools/compiler/ti-cgt-arm_16.9.1.LTS/include/
     589                            .dwattr $C$DW$T$36, DW_AT_decl_line(0x52)
     590                            .dwattr $C$DW$T$36, DW_AT_decl_column(0x1a)
     591                    
     592                    $C$DW$T$11      .dwtag  DW_TAG_base_type
     593                            .dwattr $C$DW$T$11, DW_AT_encoding(DW_ATE_unsigned)
     594                            .dwattr $C$DW$T$11, DW_AT_name("unsigned int")
     595                            .dwattr $C$DW$T$11, DW_AT_byte_size(0x04)
     596                    
     597                    $C$DW$T$37      .dwtag  DW_TAG_typedef
     598                            .dwattr $C$DW$T$37, DW_AT_name("uint32_t")
     599                            .dwattr $C$DW$T$37, DW_AT_type(*$C$DW$T$11)
     600                            .dwattr $C$DW$T$37, DW_AT_language(DW_LANG_C)
     601                            .dwattr $C$DW$T$37, DW_AT_decl_file("C:/ti/ccsv7/tools/compiler/ti-cgt-arm_16.9.1.LTS/include/
     602                            .dwattr $C$DW$T$37, DW_AT_decl_line(0x2f)
     603                            .dwattr $C$DW$T$37, DW_AT_decl_column(0x1c)
     604                    
     605                    $C$DW$T$39      .dwtag  DW_TAG_typedef
TI ARM Assembler PC v16.9.1 Fri Jul 14 17:49:16 2017

Tools Copyright (c) 1996-2015 Texas Instruments Incorporated
C:\Users\admin\AppData\Local\Temp\1329210                            PAGE   12

     606                            .dwattr $C$DW$T$39, DW_AT_name("uint_fast16_t")
     607                            .dwattr $C$DW$T$39, DW_AT_type(*$C$DW$T$37)
     608                            .dwattr $C$DW$T$39, DW_AT_language(DW_LANG_C)
     609                            .dwattr $C$DW$T$39, DW_AT_decl_file("C:/ti/ccsv7/tools/compiler/ti-cgt-arm_16.9.1.LTS/include/
     610                            .dwattr $C$DW$T$39, DW_AT_decl_line(0x48)
     611                            .dwattr $C$DW$T$39, DW_AT_decl_column(0x16)
     612                    
     613                    $C$DW$T$40      .dwtag  DW_TAG_typedef
     614                            .dwattr $C$DW$T$40, DW_AT_name("uint_fast32_t")
     615                            .dwattr $C$DW$T$40, DW_AT_type(*$C$DW$T$37)
     616                            .dwattr $C$DW$T$40, DW_AT_language(DW_LANG_C)
     617                            .dwattr $C$DW$T$40, DW_AT_decl_file("C:/ti/ccsv7/tools/compiler/ti-cgt-arm_16.9.1.LTS/include/
     618                            .dwattr $C$DW$T$40, DW_AT_decl_line(0x4b)
     619                            .dwattr $C$DW$T$40, DW_AT_decl_column(0x16)
     620                    
     621                    $C$DW$T$41      .dwtag  DW_TAG_typedef
     622                            .dwattr $C$DW$T$41, DW_AT_name("uint_fast8_t")
     623                            .dwattr $C$DW$T$41, DW_AT_type(*$C$DW$T$37)
     624                            .dwattr $C$DW$T$41, DW_AT_language(DW_LANG_C)
     625                            .dwattr $C$DW$T$41, DW_AT_decl_file("C:/ti/ccsv7/tools/compiler/ti-cgt-arm_16.9.1.LTS/include/
     626                            .dwattr $C$DW$T$41, DW_AT_decl_line(0x46)
     627                            .dwattr $C$DW$T$41, DW_AT_decl_column(0x16)
     628                    
     629                    $C$DW$T$42      .dwtag  DW_TAG_typedef
     630                            .dwattr $C$DW$T$42, DW_AT_name("uint_least32_t")
     631                            .dwattr $C$DW$T$42, DW_AT_type(*$C$DW$T$37)
     632                            .dwattr $C$DW$T$42, DW_AT_language(DW_LANG_C)
     633                            .dwattr $C$DW$T$42, DW_AT_decl_file("C:/ti/ccsv7/tools/compiler/ti-cgt-arm_16.9.1.LTS/include/
     634                            .dwattr $C$DW$T$42, DW_AT_decl_line(0x3d)
     635                            .dwattr $C$DW$T$42, DW_AT_decl_column(0x16)
     636                    
     637                    $C$DW$T$43      .dwtag  DW_TAG_typedef
     638                            .dwattr $C$DW$T$43, DW_AT_name("uintptr_t")
     639                            .dwattr $C$DW$T$43, DW_AT_type(*$C$DW$T$11)
     640                            .dwattr $C$DW$T$43, DW_AT_language(DW_LANG_C)
     641                            .dwattr $C$DW$T$43, DW_AT_decl_file("C:/ti/ccsv7/tools/compiler/ti-cgt-arm_16.9.1.LTS/include/
     642                            .dwattr $C$DW$T$43, DW_AT_decl_line(0x53)
     643                            .dwattr $C$DW$T$43, DW_AT_decl_column(0x1a)
     644                    
     645                    $C$DW$T$12      .dwtag  DW_TAG_base_type
     646                            .dwattr $C$DW$T$12, DW_AT_encoding(DW_ATE_signed)
     647                            .dwattr $C$DW$T$12, DW_AT_name("long")
     648                            .dwattr $C$DW$T$12, DW_AT_byte_size(0x04)
     649                    
     650                    $C$DW$T$13      .dwtag  DW_TAG_base_type
     651                            .dwattr $C$DW$T$13, DW_AT_encoding(DW_ATE_unsigned)
     652                            .dwattr $C$DW$T$13, DW_AT_name("unsigned long")
     653                            .dwattr $C$DW$T$13, DW_AT_byte_size(0x04)
     654                    
     655                    $C$DW$T$14      .dwtag  DW_TAG_base_type
     656                            .dwattr $C$DW$T$14, DW_AT_encoding(DW_ATE_signed)
     657                            .dwattr $C$DW$T$14, DW_AT_name("long long")
     658                            .dwattr $C$DW$T$14, DW_AT_byte_size(0x08)
     659                    
     660                    $C$DW$T$44      .dwtag  DW_TAG_typedef
TI ARM Assembler PC v16.9.1 Fri Jul 14 17:49:16 2017

Tools Copyright (c) 1996-2015 Texas Instruments Incorporated
C:\Users\admin\AppData\Local\Temp\1329210                            PAGE   13

     661                            .dwattr $C$DW$T$44, DW_AT_name("int64_t")
     662                            .dwattr $C$DW$T$44, DW_AT_type(*$C$DW$T$14)
     663                            .dwattr $C$DW$T$44, DW_AT_language(DW_LANG_C)
     664                            .dwattr $C$DW$T$44, DW_AT_decl_file("C:/ti/ccsv7/tools/compiler/ti-cgt-arm_16.9.1.LTS/include/
     665                            .dwattr $C$DW$T$44, DW_AT_decl_line(0x32)
     666                            .dwattr $C$DW$T$44, DW_AT_decl_column(0x21)
     667                    
     668                    $C$DW$T$45      .dwtag  DW_TAG_typedef
     669                            .dwattr $C$DW$T$45, DW_AT_name("int_fast64_t")
     670                            .dwattr $C$DW$T$45, DW_AT_type(*$C$DW$T$44)
     671                            .dwattr $C$DW$T$45, DW_AT_language(DW_LANG_C)
     672                            .dwattr $C$DW$T$45, DW_AT_decl_file("C:/ti/ccsv7/tools/compiler/ti-cgt-arm_16.9.1.LTS/include/
     673                            .dwattr $C$DW$T$45, DW_AT_decl_line(0x4e)
     674                            .dwattr $C$DW$T$45, DW_AT_decl_column(0x17)
     675                    
     676                    $C$DW$T$46      .dwtag  DW_TAG_typedef
     677                            .dwattr $C$DW$T$46, DW_AT_name("int_least64_t")
     678                            .dwattr $C$DW$T$46, DW_AT_type(*$C$DW$T$44)
     679                            .dwattr $C$DW$T$46, DW_AT_language(DW_LANG_C)
     680                            .dwattr $C$DW$T$46, DW_AT_decl_file("C:/ti/ccsv7/tools/compiler/ti-cgt-arm_16.9.1.LTS/include/
     681                            .dwattr $C$DW$T$46, DW_AT_decl_line(0x40)
     682                            .dwattr $C$DW$T$46, DW_AT_decl_column(0x17)
     683                    
     684                    $C$DW$T$47      .dwtag  DW_TAG_typedef
     685                            .dwattr $C$DW$T$47, DW_AT_name("intmax_t")
     686                            .dwattr $C$DW$T$47, DW_AT_type(*$C$DW$T$14)
     687                            .dwattr $C$DW$T$47, DW_AT_language(DW_LANG_C)
     688                            .dwattr $C$DW$T$47, DW_AT_decl_file("C:/ti/ccsv7/tools/compiler/ti-cgt-arm_16.9.1.LTS/include/
     689                            .dwattr $C$DW$T$47, DW_AT_decl_line(0x56)
     690                            .dwattr $C$DW$T$47, DW_AT_decl_column(0x20)
     691                    
     692                    $C$DW$T$15      .dwtag  DW_TAG_base_type
     693                            .dwattr $C$DW$T$15, DW_AT_encoding(DW_ATE_unsigned)
     694                            .dwattr $C$DW$T$15, DW_AT_name("unsigned long long")
     695                            .dwattr $C$DW$T$15, DW_AT_byte_size(0x08)
     696                    
     697                    $C$DW$T$48      .dwtag  DW_TAG_typedef
     698                            .dwattr $C$DW$T$48, DW_AT_name("uint64_t")
     699                            .dwattr $C$DW$T$48, DW_AT_type(*$C$DW$T$15)
     700                            .dwattr $C$DW$T$48, DW_AT_language(DW_LANG_C)
     701                            .dwattr $C$DW$T$48, DW_AT_decl_file("C:/ti/ccsv7/tools/compiler/ti-cgt-arm_16.9.1.LTS/include/
     702                            .dwattr $C$DW$T$48, DW_AT_decl_line(0x33)
     703                            .dwattr $C$DW$T$48, DW_AT_decl_column(0x20)
     704                    
     705                    $C$DW$T$49      .dwtag  DW_TAG_typedef
     706                            .dwattr $C$DW$T$49, DW_AT_name("uint_fast64_t")
     707                            .dwattr $C$DW$T$49, DW_AT_type(*$C$DW$T$48)
     708                            .dwattr $C$DW$T$49, DW_AT_language(DW_LANG_C)
     709                            .dwattr $C$DW$T$49, DW_AT_decl_file("C:/ti/ccsv7/tools/compiler/ti-cgt-arm_16.9.1.LTS/include/
     710                            .dwattr $C$DW$T$49, DW_AT_decl_line(0x4f)
     711                            .dwattr $C$DW$T$49, DW_AT_decl_column(0x16)
     712                    
     713                    $C$DW$T$50      .dwtag  DW_TAG_typedef
     714                            .dwattr $C$DW$T$50, DW_AT_name("uint_least64_t")
     715                            .dwattr $C$DW$T$50, DW_AT_type(*$C$DW$T$48)
TI ARM Assembler PC v16.9.1 Fri Jul 14 17:49:16 2017

Tools Copyright (c) 1996-2015 Texas Instruments Incorporated
C:\Users\admin\AppData\Local\Temp\1329210                            PAGE   14

     716                            .dwattr $C$DW$T$50, DW_AT_language(DW_LANG_C)
     717                            .dwattr $C$DW$T$50, DW_AT_decl_file("C:/ti/ccsv7/tools/compiler/ti-cgt-arm_16.9.1.LTS/include/
     718                            .dwattr $C$DW$T$50, DW_AT_decl_line(0x41)
     719                            .dwattr $C$DW$T$50, DW_AT_decl_column(0x16)
     720                    
     721                    $C$DW$T$51      .dwtag  DW_TAG_typedef
     722                            .dwattr $C$DW$T$51, DW_AT_name("uintmax_t")
     723                            .dwattr $C$DW$T$51, DW_AT_type(*$C$DW$T$15)
     724                            .dwattr $C$DW$T$51, DW_AT_language(DW_LANG_C)
     725                            .dwattr $C$DW$T$51, DW_AT_decl_file("C:/ti/ccsv7/tools/compiler/ti-cgt-arm_16.9.1.LTS/include/
     726                            .dwattr $C$DW$T$51, DW_AT_decl_line(0x57)
     727                            .dwattr $C$DW$T$51, DW_AT_decl_column(0x20)
     728                    
     729                    $C$DW$T$16      .dwtag  DW_TAG_base_type
     730                            .dwattr $C$DW$T$16, DW_AT_encoding(DW_ATE_float)
     731                            .dwattr $C$DW$T$16, DW_AT_name("float")
     732                            .dwattr $C$DW$T$16, DW_AT_byte_size(0x04)
     733                    
     734                    $C$DW$T$17      .dwtag  DW_TAG_base_type
     735                            .dwattr $C$DW$T$17, DW_AT_encoding(DW_ATE_float)
     736                            .dwattr $C$DW$T$17, DW_AT_name("double")
     737                            .dwattr $C$DW$T$17, DW_AT_byte_size(0x08)
     738                    
     739                    $C$DW$T$18      .dwtag  DW_TAG_base_type
     740                            .dwattr $C$DW$T$18, DW_AT_encoding(DW_ATE_float)
     741                            .dwattr $C$DW$T$18, DW_AT_name("long double")
     742                            .dwattr $C$DW$T$18, DW_AT_byte_size(0x08)
     743                    
     744                            .dwattr $C$DW$CU, DW_AT_language(DW_LANG_C)
     745                    
     746                    ;***************************************************************
     747                    ;* DWARF CIE ENTRIES                                           *
     748                    ;***************************************************************
     749                    
     750                    $C$DW$CIE       .dwcie 14
     751                            .dwcfi  cfa_register, 13
     752                            .dwcfi  cfa_offset, 0
     753                            .dwcfi  same_value, 4
     754                            .dwcfi  same_value, 5
     755                            .dwcfi  same_value, 6
     756                            .dwcfi  same_value, 7
     757                            .dwcfi  same_value, 8
     758                            .dwcfi  same_value, 9
     759                            .dwcfi  same_value, 10
     760                            .dwcfi  same_value, 11
     761                            .dwcfi  same_value, 80
     762                            .dwcfi  same_value, 81
     763                            .dwcfi  same_value, 82
     764                            .dwcfi  same_value, 83
     765                            .dwcfi  same_value, 84
     766                            .dwcfi  same_value, 85
     767                            .dwcfi  same_value, 86
     768                            .dwcfi  same_value, 87
     769                            .dwcfi  same_value, 88
     770                            .dwcfi  same_value, 89
TI ARM Assembler PC v16.9.1 Fri Jul 14 17:49:16 2017

Tools Copyright (c) 1996-2015 Texas Instruments Incorporated
C:\Users\admin\AppData\Local\Temp\1329210                            PAGE   15

     771                            .dwcfi  same_value, 90
     772                            .dwcfi  same_value, 91
     773                            .dwcfi  same_value, 92
     774                            .dwcfi  same_value, 93
     775                            .dwcfi  same_value, 94
     776                            .dwcfi  same_value, 95
     777                            .dwendentry
     778                            .dwendtag $C$DW$CU
     779                    

--------------------------
Thumb2 Statistics
--------------------------
Number of Thumb2 ins converted to Thumb = 0 (0%)
Number of Thumb ins in input = 4 (80%)
Number of Thumb2 ins encoded as Thumb2 = 1 (100%)
Number of Thumb2 ins converted to 2 OPND Thumb = 0


No Assembly Errors, No Assembly Warnings
